target datalayout = "e-m:e-p270:32:32-p271:32:32-p272:64:64-i64:64-i128:128-f80:128-n8:16:32:64-S128"
target triple = "x86_64-pc-linux-gnu"

%"class.std::__shared_count" = type { ptr }
%"class.std::__cxx11::_List_base" = type { %"struct.std::__cxx11::_List_base<std::shared_ptr<open3d::geometry::(anonymous namespace)::BallPivotingEdge>, std::allocator<std::shared_ptr<open3d::geometry::(anonymous namespace)::BallPivotingEdge>>>::_List_impl" }
%"struct.std::__cxx11::_List_base<std::shared_ptr<open3d::geometry::(anonymous namespace)::BallPivotingEdge>, std::allocator<std::shared_ptr<open3d::geometry::(anonymous namespace)::BallPivotingEdge>>>::_List_impl" = type { %"struct.std::__detail::_List_node_header" }
%"struct.std::__detail::_List_node_header" = type { %"struct.std::__detail::_List_node_base", i64 }
%"struct.std::__detail::_List_node_base" = type { ptr, ptr }
%"class.std::__shared_ptr.78" = type { ptr, %"class.std::__shared_count" }
%"class.std::_Sp_counted_base" = type { ptr, i32, i32 }
%"struct.std::_List_node" = type { %"struct.std::__detail::_List_node_base", %"struct.__gnu_cxx::__aligned_membuf" }
%"struct.__gnu_cxx::__aligned_membuf" = type { [16 x i8] }

@__libc_single_threaded = external global i8, align 1

; Function Attrs: alwaysinline mustprogress nounwind ssp uwtable
define linkonce_odr noundef i32 @_ZN9__gnu_cxx18__exchange_and_addEPVii(ptr noundef %0, i32 noundef %1) #9 comdat {
  %3 = alloca ptr, align 8
  %4 = alloca i32, align 4
  %5 = alloca i32, align 4
  %6 = alloca i32, align 4
  store ptr %0, ptr %3, align 8, !tbaa !326
  store i32 %1, ptr %4, align 4, !tbaa !97
  %7 = load ptr, ptr %3, align 8, !tbaa !326
  %8 = load i32, ptr %4, align 4, !tbaa !97
  store i32 %8, ptr %5, align 4, !tbaa !97
  %9 = load i32, ptr %5, align 4
  %10 = atomicrmw volatile add ptr %7, i32 %9 acq_rel, align 4
  store i32 %10, ptr %6, align 4
  %11 = load i32, ptr %6, align 4, !tbaa !97
  ret i32 %11
}

; Function Attrs: alwaysinline mustprogress nounwind ssp uwtable
define linkonce_odr noundef i32 @_ZN9__gnu_cxx25__exchange_and_add_singleEPii(ptr noundef %0, i32 noundef %1) #9 comdat {
  %3 = alloca ptr, align 8
  %4 = alloca i32, align 4
  %5 = alloca i32, align 4
  store ptr %0, ptr %3, align 8, !tbaa !326
  store i32 %1, ptr %4, align 4, !tbaa !97
  call void @llvm.lifetime.start.p0(i64 4, ptr %5) #30
  %6 = load ptr, ptr %3, align 8, !tbaa !326
  %7 = load i32, ptr %6, align 4, !tbaa !97
  store i32 %7, ptr %5, align 4, !tbaa !97
  %8 = load i32, ptr %4, align 4, !tbaa !97
  %9 = load ptr, ptr %3, align 8, !tbaa !326
  %10 = load i32, ptr %9, align 4, !tbaa !97
  %11 = add nsw i32 %10, %8
  store i32 %11, ptr %9, align 4, !tbaa !97
  %12 = load i32, ptr %5, align 4, !tbaa !97
  call void @llvm.lifetime.end.p0(i64 4, ptr %5) #30
  ret i32 %12
}

; Function Attrs: alwaysinline mustprogress nounwind ssp uwtable
define linkonce_odr noundef zeroext i1 @_ZN9__gnu_cxx20__is_single_threadedEv() #9 comdat {
  %1 = load i8, ptr @__libc_single_threaded, align 1, !tbaa !217
  %2 = icmp ne i8 %1, 0
  ret i1 %2
}

; Function Attrs: alwaysinline mustprogress ssp uwtable
define linkonce_odr noundef i32 @_ZN9__gnu_cxx27__exchange_and_add_dispatchEPii(ptr noundef %0, i32 noundef %1) #11 comdat {
  %3 = alloca i32, align 4
  %4 = alloca ptr, align 8
  %5 = alloca i32, align 4
  store ptr %0, ptr %4, align 8, !tbaa !326
  store i32 %1, ptr %5, align 4, !tbaa !97
  %6 = call noundef zeroext i1 @_ZN9__gnu_cxx20__is_single_threadedEv() #30
  br i1 %6, label %7, label %11

7:                                                ; preds = %2
  %8 = load ptr, ptr %4, align 8, !tbaa !326
  %9 = load i32, ptr %5, align 4, !tbaa !97
  %10 = call noundef i32 @_ZN9__gnu_cxx25__exchange_and_add_singleEPii(ptr noundef %8, i32 noundef %9)
  store i32 %10, ptr %3, align 4
  br label %15

11:                                               ; preds = %2
  %12 = load ptr, ptr %4, align 8, !tbaa !326
  %13 = load i32, ptr %5, align 4, !tbaa !97
  %14 = call noundef i32 @_ZN9__gnu_cxx18__exchange_and_addEPVii(ptr noundef %12, i32 noundef %13)
  store i32 %14, ptr %3, align 4
  br label %15

15:                                               ; preds = %11, %7
  %16 = load i32, ptr %3, align 4
  ret i32 %16
}

; Function Attrs: inlinehint mustprogress nounwind ssp uwtable
define linkonce_odr void @_ZNSt16_Sp_counted_baseILN9__gnu_cxx12_Lock_policyE2EE10_M_releaseEv(ptr noundef nonnull align 8 dereferenceable(16) %0) #16 comdat align 2 personality ptr @__gxx_personality_v0 {
  %2 = alloca ptr, align 8
  %3 = alloca i8, align 1
  %4 = alloca i8, align 1
  %5 = alloca i8, align 1
  %6 = alloca i32, align 4
  %7 = alloca i32, align 4
  %8 = alloca i64, align 8
  %9 = alloca ptr, align 8
  %10 = alloca i64, align 8
  %11 = alloca i32, align 4
  store ptr %0, ptr %2, align 8, !tbaa !173
  %12 = load ptr, ptr %2, align 8
  call void @llvm.lifetime.start.p0(i64 1, ptr %3) #30
  store i8 1, ptr %3, align 1, !tbaa !94
  call void @llvm.lifetime.start.p0(i64 1, ptr %4) #30
  store i8 1, ptr %4, align 1, !tbaa !94
  call void @llvm.lifetime.start.p0(i64 1, ptr %5) #30
  store i8 1, ptr %5, align 1, !tbaa !94
  call void @llvm.lifetime.start.p0(i64 4, ptr %6) #30
  store i32 32, ptr %6, align 4, !tbaa !97
  call void @llvm.lifetime.start.p0(i64 4, ptr %7) #30
  store i32 32, ptr %7, align 4, !tbaa !97
  call void @llvm.lifetime.start.p0(i64 8, ptr %8) #30
  store i64 4294967297, ptr %8, align 8, !tbaa !322
  call void @llvm.lifetime.start.p0(i64 8, ptr %9) #30
  %13 = getelementptr inbounds nuw %"class.std::_Sp_counted_base", ptr %12, i32 0, i32 1
  store ptr %13, ptr %9, align 8, !tbaa !324
  %14 = load ptr, ptr %9, align 8, !tbaa !324
  %15 = load atomic i64, ptr %14 acquire, align 8
  store i64 %15, ptr %10, align 8
  %16 = load i64, ptr %10, align 8, !tbaa !322
  %17 = icmp eq i64 %16, 4294967297
  br i1 %17, label %18, label %27

18:                                               ; preds = %1
  %19 = getelementptr inbounds nuw %"class.std::_Sp_counted_base", ptr %12, i32 0, i32 1
  store i32 0, ptr %19, align 8, !tbaa !174
  %20 = getelementptr inbounds nuw %"class.std::_Sp_counted_base", ptr %12, i32 0, i32 2
  store i32 0, ptr %20, align 4, !tbaa !176
  %21 = load ptr, ptr %12, align 8, !tbaa !25
  %22 = getelementptr inbounds ptr, ptr %21, i64 2
  %23 = load ptr, ptr %22, align 8
  call void %23(ptr noundef nonnull align 8 dereferenceable(16) %12) #30
  %24 = load ptr, ptr %12, align 8, !tbaa !25
  %25 = getelementptr inbounds ptr, ptr %24, i64 3
  %26 = load ptr, ptr %25, align 8
  call void %26(ptr noundef nonnull align 8 dereferenceable(16) %12) #30
  store i32 1, ptr %11, align 4
  br label %35

27:                                               ; preds = %1
  %28 = getelementptr inbounds nuw %"class.std::_Sp_counted_base", ptr %12, i32 0, i32 1
  %29 = invoke noundef i32 @_ZN9__gnu_cxx27__exchange_and_add_dispatchEPii(ptr noundef %28, i32 noundef -1)
          to label %30 unwind label %41

30:                                               ; preds = %27
  %31 = icmp eq i32 %29, 1
  %32 = call i1 @llvm.expect.i1(i1 %31, i1 false)
  br i1 %32, label %33, label %34

33:                                               ; preds = %30
  call void @_ZNSt16_Sp_counted_baseILN9__gnu_cxx12_Lock_policyE2EE24_M_release_last_use_coldEv(ptr noundef nonnull align 8 dereferenceable(16) %12) #30
  store i32 1, ptr %11, align 4
  br label %35

34:                                               ; preds = %30
  store i32 0, ptr %11, align 4
  br label %35

35:                                               ; preds = %34, %33, %18
  call void @llvm.lifetime.end.p0(i64 8, ptr %9) #30
  call void @llvm.lifetime.end.p0(i64 8, ptr %8) #30
  call void @llvm.lifetime.end.p0(i64 4, ptr %7) #30
  call void @llvm.lifetime.end.p0(i64 4, ptr %6) #30
  %36 = load i32, ptr %11, align 4
  switch i32 %36, label %38 [
    i32 0, label %37
  ]

37:                                               ; preds = %35
  store i32 0, ptr %11, align 4
  br label %38

38:                                               ; preds = %37, %35
  call void @llvm.lifetime.end.p0(i64 1, ptr %5) #30
  call void @llvm.lifetime.end.p0(i64 1, ptr %4) #30
  call void @llvm.lifetime.end.p0(i64 1, ptr %3) #30
  %39 = load i32, ptr %11, align 4
  switch i32 %39, label %44 [
    i32 0, label %40
    i32 1, label %40
  ]

40:                                               ; preds = %38, %38
  ret void

41:                                               ; preds = %27
  %42 = landingpad { ptr, i32 }
          catch ptr null
  %43 = extractvalue { ptr, i32 } %42, 0
  call void @__clang_call_terminate(ptr %43) #34
  unreachable

44:                                               ; preds = %38
  unreachable
}

; Function Attrs: mustprogress nounwind ssp uwtable
define linkonce_odr void @_ZNSt14__shared_countILN9__gnu_cxx12_Lock_policyE2EED2Ev(ptr noundef nonnull align 8 dereferenceable(8) %0) unnamed_addr #1 comdat align 2 {
  %2 = alloca ptr, align 8
  store ptr %0, ptr %2, align 8, !tbaa !150
  %3 = load ptr, ptr %2, align 8
  %4 = getelementptr inbounds nuw %"class.std::__shared_count", ptr %3, i32 0, i32 0
  %5 = load ptr, ptr %4, align 8, !tbaa !152
  %6 = icmp ne ptr %5, null
  br i1 %6, label %7, label %10

7:                                                ; preds = %1
  %8 = getelementptr inbounds nuw %"class.std::__shared_count", ptr %3, i32 0, i32 0
  %9 = load ptr, ptr %8, align 8, !tbaa !152
  call void @_ZNSt16_Sp_counted_baseILN9__gnu_cxx12_Lock_policyE2EE10_M_releaseEv(ptr noundef nonnull align 8 dereferenceable(16) %9) #30
  br label %10

10:                                               ; preds = %7, %1
  ret void
}

; Function Attrs: mustprogress nounwind ssp uwtable
define internal void @_ZNSt15__new_allocatorISt10_List_nodeISt10shared_ptrIN6open3d8geometry12_GLOBAL__N_116BallPivotingEdgeEEEE10deallocateEPS7_m(ptr noundef nonnull align 1 dereferenceable(1) %0, ptr noundef %1, i64 noundef %2) #1 align 2 {
  %4 = alloca ptr, align 8
  %5 = alloca ptr, align 8
  %6 = alloca i64, align 8
  store ptr %0, ptr %4, align 8, !tbaa !134
  store ptr %1, ptr %5, align 8, !tbaa !414
  store i64 %2, ptr %6, align 8, !tbaa !60
  %7 = load ptr, ptr %5, align 8, !tbaa !414
  %8 = load i64, ptr %6, align 8, !tbaa !60
  %9 = mul i64 %8, 32
  call void @_ZdlPvm(ptr noundef %7, i64 noundef %9) #32
  ret void
}

; Function Attrs: mustprogress nounwind ssp uwtable
define internal void @_ZNSt12__shared_ptrIN6open3d8geometry12_GLOBAL__N_116BallPivotingEdgeELN9__gnu_cxx12_Lock_policyE2EED2Ev(ptr noundef nonnull align 8 dereferenceable(16) %0) unnamed_addr #1 align 2 {
  %2 = alloca ptr, align 8
  store ptr %0, ptr %2, align 8, !tbaa !1124
  %3 = load ptr, ptr %2, align 8
  %4 = getelementptr inbounds nuw %"class.std::__shared_ptr.78", ptr %3, i32 0, i32 1
  call void @_ZNSt14__shared_countILN9__gnu_cxx12_Lock_policyE2EED2Ev(ptr noundef nonnull align 8 dereferenceable(8) %4) #30
  ret void
}

; Function Attrs: mustprogress nounwind ssp uwtable
define internal noundef ptr @_ZN9__gnu_cxx16__aligned_membufISt10shared_ptrIN6open3d8geometry12_GLOBAL__N_116BallPivotingEdgeEEE7_M_addrEv(ptr noundef nonnull align 8 dereferenceable(16) %0) #1 align 2 {
  %2 = alloca ptr, align 8
  store ptr %0, ptr %2, align 8, !tbaa !419
  %3 = load ptr, ptr %2, align 8
  %4 = getelementptr inbounds nuw %"struct.__gnu_cxx::__aligned_membuf", ptr %3, i32 0, i32 0
  ret ptr %4
}

; Function Attrs: alwaysinline mustprogress ssp uwtable
define internal void @_ZNSt16allocator_traitsISaISt10_List_nodeISt10shared_ptrIN6open3d8geometry12_GLOBAL__N_116BallPivotingEdgeEEEEE10deallocateERS8_PS7_m(ptr noundef nonnull align 1 dereferenceable(1) %0, ptr noundef %1, i64 noundef %2) #11 align 2 {
  %4 = alloca ptr, align 8
  %5 = alloca ptr, align 8
  %6 = alloca i64, align 8
  store ptr %0, ptr %4, align 8, !tbaa !130
  store ptr %1, ptr %5, align 8, !tbaa !414
  store i64 %2, ptr %6, align 8, !tbaa !60
  %7 = load ptr, ptr %4, align 8, !tbaa !130
  %8 = load ptr, ptr %5, align 8, !tbaa !414
  %9 = load i64, ptr %6, align 8, !tbaa !60
  call void @_ZNSt15__new_allocatorISt10_List_nodeISt10shared_ptrIN6open3d8geometry12_GLOBAL__N_116BallPivotingEdgeEEEE10deallocateEPS7_m(ptr noundef nonnull align 1 dereferenceable(1) %7, ptr noundef %8, i64 noundef %9)
  ret void
}

; Function Attrs: alwaysinline mustprogress nounwind ssp uwtable
define internal void @_ZNSt15__new_allocatorISt10_List_nodeISt10shared_ptrIN6open3d8geometry12_GLOBAL__N_116BallPivotingEdgeEEEE7destroyIS6_EEvPT_(ptr noundef nonnull align 1 dereferenceable(1) %0, ptr noundef %1) #9 align 2 {
  %3 = alloca ptr, align 8
  %4 = alloca ptr, align 8
  store ptr %0, ptr %3, align 8, !tbaa !134
  store ptr %1, ptr %4, align 8, !tbaa !416
  %5 = load ptr, ptr %4, align 8, !tbaa !416
  call void @_ZNSt12__shared_ptrIN6open3d8geometry12_GLOBAL__N_116BallPivotingEdgeELN9__gnu_cxx12_Lock_policyE2EED2Ev(ptr noundef nonnull align 8 dereferenceable(16) %5) #30
  ret void
}

; Function Attrs: mustprogress nounwind ssp uwtable
define internal noundef ptr @_ZN9__gnu_cxx16__aligned_membufISt10shared_ptrIN6open3d8geometry12_GLOBAL__N_116BallPivotingEdgeEEE6_M_ptrEv(ptr noundef nonnull align 8 dereferenceable(16) %0) #1 align 2 {
  %2 = alloca ptr, align 8
  store ptr %0, ptr %2, align 8, !tbaa !419
  %3 = load ptr, ptr %2, align 8
  %4 = call noundef ptr @_ZN9__gnu_cxx16__aligned_membufISt10shared_ptrIN6open3d8geometry12_GLOBAL__N_116BallPivotingEdgeEEE7_M_addrEv(ptr noundef nonnull align 8 dereferenceable(16) %3) #30
  ret ptr %4
}

; Function Attrs: noinline noreturn nounwind ssp uwtable
define linkonce_odr hidden void @__clang_call_terminate(ptr noundef %0) #15 comdat {
  %2 = call ptr @__cxa_begin_catch(ptr %0) #30
  call void @_ZSt9terminatev() #34
  unreachable
}

; Function Attrs: mustprogress nounwind ssp uwtable
define internal void @_ZNSt7__cxx1110_List_baseISt10shared_ptrIN6open3d8geometry12_GLOBAL__N_116BallPivotingEdgeEESaIS6_EE11_M_put_nodeEPSt10_List_nodeIS6_E(ptr noundef nonnull align 8 dereferenceable(24) %0, ptr noundef %1) #1 align 2 personality ptr @__gxx_personality_v0 {
  %3 = alloca ptr, align 8
  %4 = alloca ptr, align 8
  store ptr %0, ptr %3, align 8, !tbaa !126
  store ptr %1, ptr %4, align 8, !tbaa !414
  %5 = load ptr, ptr %3, align 8
  %6 = getelementptr inbounds nuw %"class.std::__cxx11::_List_base", ptr %5, i32 0, i32 0
  %7 = load ptr, ptr %4, align 8, !tbaa !414
  invoke void @_ZNSt16allocator_traitsISaISt10_List_nodeISt10shared_ptrIN6open3d8geometry12_GLOBAL__N_116BallPivotingEdgeEEEEE10deallocateERS8_PS7_m(ptr noundef nonnull align 1 dereferenceable(1) %6, ptr noundef %7, i64 noundef 1)
          to label %8 unwind label %9

8:                                                ; preds = %2
  ret void

9:                                                ; preds = %2
  %10 = landingpad { ptr, i32 }
          catch ptr null
  %11 = extractvalue { ptr, i32 } %10, 0
  call void @__clang_call_terminate(ptr %11) #34
  unreachable
}

; Function Attrs: alwaysinline mustprogress nounwind ssp uwtable
define internal void @_ZNSt16allocator_traitsISaISt10_List_nodeISt10shared_ptrIN6open3d8geometry12_GLOBAL__N_116BallPivotingEdgeEEEEE7destroyIS6_EEvRS8_PT_(ptr noundef nonnull align 1 dereferenceable(1) %0, ptr noundef %1) #9 align 2 {
  %3 = alloca ptr, align 8
  %4 = alloca ptr, align 8
  store ptr %0, ptr %3, align 8, !tbaa !130
  store ptr %1, ptr %4, align 8, !tbaa !416
  %5 = load ptr, ptr %3, align 8, !tbaa !130
  %6 = load ptr, ptr %4, align 8, !tbaa !416
  call void @_ZNSt15__new_allocatorISt10_List_nodeISt10shared_ptrIN6open3d8geometry12_GLOBAL__N_116BallPivotingEdgeEEEE7destroyIS6_EEvPT_(ptr noundef nonnull align 1 dereferenceable(1) %5, ptr noundef %6) #30
  ret void
}

; Function Attrs: mustprogress nounwind ssp uwtable
define internal noundef nonnull align 1 dereferenceable(1) ptr @_ZNSt7__cxx1110_List_baseISt10shared_ptrIN6open3d8geometry12_GLOBAL__N_116BallPivotingEdgeEESaIS6_EE21_M_get_Node_allocatorEv(ptr noundef nonnull align 8 dereferenceable(24) %0) #1 align 2 {
  %2 = alloca ptr, align 8
  store ptr %0, ptr %2, align 8, !tbaa !126
  %3 = load ptr, ptr %2, align 8
  %4 = getelementptr inbounds nuw %"class.std::__cxx11::_List_base", ptr %3, i32 0, i32 0
  ret ptr %4
}

; Function Attrs: mustprogress nounwind ssp uwtable
define internal noundef ptr @_ZNSt10_List_nodeISt10shared_ptrIN6open3d8geometry12_GLOBAL__N_116BallPivotingEdgeEEE9_M_valptrEv(ptr noundef nonnull align 8 dereferenceable(32) %0) #1 align 2 {
  %2 = alloca ptr, align 8
  store ptr %0, ptr %2, align 8, !tbaa !414
  %3 = load ptr, ptr %2, align 8
  %4 = getelementptr inbounds nuw %"struct.std::_List_node", ptr %3, i32 0, i32 1
  %5 = call noundef ptr @_ZN9__gnu_cxx16__aligned_membufISt10shared_ptrIN6open3d8geometry12_GLOBAL__N_116BallPivotingEdgeEEE6_M_ptrEv(ptr noundef nonnull align 8 dereferenceable(16) %4) #30
  ret ptr %5
}

; Function Attrs: mustprogress nounwind ssp uwtable
define internal void @_ZNSt15__new_allocatorISt10_List_nodeISt10shared_ptrIN6open3d8geometry12_GLOBAL__N_116BallPivotingEdgeEEEED2Ev(ptr noundef nonnull align 1 dereferenceable(1) %0) unnamed_addr #1 align 2 {
  %2 = alloca ptr, align 8
  store ptr %0, ptr %2, align 8, !tbaa !134
  ret void
}

; Function Attrs: mustprogress nounwind ssp uwtable
define internal void @_ZNSt7__cxx1110_List_baseISt10shared_ptrIN6open3d8geometry12_GLOBAL__N_116BallPivotingEdgeEESaIS6_EE8_M_clearEv(ptr noundef nonnull align 8 dereferenceable(24) %0) #1 align 2 personality ptr @__gxx_personality_v0 {
  %2 = alloca ptr, align 8
  %3 = alloca ptr, align 8
  %4 = alloca ptr, align 8
  %5 = alloca ptr, align 8
  store ptr %0, ptr %2, align 8, !tbaa !126
  %6 = load ptr, ptr %2, align 8
  call void @llvm.lifetime.start.p0(i64 8, ptr %3) #30
  %7 = getelementptr inbounds nuw %"class.std::__cxx11::_List_base", ptr %6, i32 0, i32 0
  %8 = getelementptr inbounds nuw %"struct.std::__cxx11::_List_base<std::shared_ptr<open3d::geometry::(anonymous namespace)::BallPivotingEdge>, std::allocator<std::shared_ptr<open3d::geometry::(anonymous namespace)::BallPivotingEdge>>>::_List_impl", ptr %7, i32 0, i32 0
  %9 = getelementptr inbounds nuw %"struct.std::__detail::_List_node_base", ptr %8, i32 0, i32 0
  %10 = load ptr, ptr %9, align 8, !tbaa !137
  store ptr %10, ptr %3, align 8, !tbaa !100
  br label %11

11:                                               ; preds = %23, %1
  %12 = load ptr, ptr %3, align 8, !tbaa !100
  %13 = getelementptr inbounds nuw %"class.std::__cxx11::_List_base", ptr %6, i32 0, i32 0
  %14 = getelementptr inbounds nuw %"struct.std::__cxx11::_List_base<std::shared_ptr<open3d::geometry::(anonymous namespace)::BallPivotingEdge>, std::allocator<std::shared_ptr<open3d::geometry::(anonymous namespace)::BallPivotingEdge>>>::_List_impl", ptr %13, i32 0, i32 0
  %15 = icmp ne ptr %12, %14
  br i1 %15, label %16, label %27

16:                                               ; preds = %11
  call void @llvm.lifetime.start.p0(i64 8, ptr %4) #30
  %17 = load ptr, ptr %3, align 8, !tbaa !100
  store ptr %17, ptr %4, align 8, !tbaa !414
  %18 = load ptr, ptr %4, align 8, !tbaa !414
  %19 = getelementptr inbounds nuw %"struct.std::__detail::_List_node_base", ptr %18, i32 0, i32 0
  %20 = load ptr, ptr %19, align 8, !tbaa !137
  store ptr %20, ptr %3, align 8, !tbaa !100
  call void @llvm.lifetime.start.p0(i64 8, ptr %5) #30
  %21 = load ptr, ptr %4, align 8, !tbaa !414
  %22 = invoke noundef ptr @_ZNSt10_List_nodeISt10shared_ptrIN6open3d8geometry12_GLOBAL__N_116BallPivotingEdgeEEE9_M_valptrEv(ptr noundef nonnull align 8 dereferenceable(32) %21)
          to label %23 unwind label %28

23:                                               ; preds = %16
  store ptr %22, ptr %5, align 8, !tbaa !416
  %24 = call noundef nonnull align 1 dereferenceable(1) ptr @_ZNSt7__cxx1110_List_baseISt10shared_ptrIN6open3d8geometry12_GLOBAL__N_116BallPivotingEdgeEESaIS6_EE21_M_get_Node_allocatorEv(ptr noundef nonnull align 8 dereferenceable(24) %6) #30
  %25 = load ptr, ptr %5, align 8, !tbaa !416
  call void @_ZNSt16allocator_traitsISaISt10_List_nodeISt10shared_ptrIN6open3d8geometry12_GLOBAL__N_116BallPivotingEdgeEEEEE7destroyIS6_EEvRS8_PT_(ptr noundef nonnull align 1 dereferenceable(1) %24, ptr noundef %25) #30
  %26 = load ptr, ptr %4, align 8, !tbaa !414
  call void @_ZNSt7__cxx1110_List_baseISt10shared_ptrIN6open3d8geometry12_GLOBAL__N_116BallPivotingEdgeEESaIS6_EE11_M_put_nodeEPSt10_List_nodeIS6_E(ptr noundef nonnull align 8 dereferenceable(24) %6, ptr noundef %26) #30
  call void @llvm.lifetime.end.p0(i64 8, ptr %5) #30
  call void @llvm.lifetime.end.p0(i64 8, ptr %4) #30
  br label %11, !llvm.loop !418

27:                                               ; preds = %11
  call void @llvm.lifetime.end.p0(i64 8, ptr %3) #30
  ret void

28:                                               ; preds = %16
  %29 = landingpad { ptr, i32 }
          catch ptr null
  %30 = extractvalue { ptr, i32 } %29, 0
  call void @__clang_call_terminate(ptr %30) #34
  unreachable
}

; Function Attrs: mustprogress nounwind ssp uwtable
define internal void @_ZNSt7__cxx1110_List_baseISt10shared_ptrIN6open3d8geometry12_GLOBAL__N_116BallPivotingEdgeEESaIS6_EED2Ev(ptr noundef nonnull align 8 dereferenceable(24) %0) unnamed_addr #1 align 2 {
  %2 = alloca ptr, align 8
  store ptr %0, ptr %2, align 8, !tbaa !126
  %3 = load ptr, ptr %2, align 8
  call void @_ZNSt7__cxx1110_List_baseISt10shared_ptrIN6open3d8geometry12_GLOBAL__N_116BallPivotingEdgeEESaIS6_EE8_M_clearEv(ptr noundef nonnull align 8 dereferenceable(24) %3) #30
  %4 = getelementptr inbounds nuw %"class.std::__cxx11::_List_base", ptr %3, i32 0, i32 0
  call void @_ZNSt15__new_allocatorISt10_List_nodeISt10shared_ptrIN6open3d8geometry12_GLOBAL__N_116BallPivotingEdgeEEEED2Ev(ptr noundef nonnull align 8 dereferenceable(24) %4) #30
  ret void
}