; Function Attrs: mustprogress nounwind ssp uwtable
define internal fastcc void @_ZNSt7__cxx1110_List_baseISt10shared_ptrIN6open3d8geometry12_GLOBAL__N_116BallPivotingEdgeEESaIS6_EED2Ev(ptr noundef nonnull readonly align 8 captures(address) dereferenceable(24) %0) unnamed_addr #2 align 2 personality ptr @__gxx_personality_v0 {
  %2 = load ptr, ptr %0, align 8, !tbaa !47
  %.not8.i = icmp eq ptr %2, %0
  br i1 %.not8.i, label %_ZNSt7__cxx1110_List_baseISt10shared_ptrIN6open3d8geometry12_GLOBAL__N_116BallPivotingEdgeEESaIS6_EE8_M_clearEv.exit, label %.lr.ph.i

.lr.ph.i:                                         ; preds = %1, %_ZNSt12__shared_ptrIN6open3d8geometry12_GLOBAL__N_116BallPivotingEdgeELN9__gnu_cxx12_Lock_policyE2EED2Ev.exit.i
  %.09.i = phi ptr [ %3, %_ZNSt12__shared_ptrIN6open3d8geometry12_GLOBAL__N_116BallPivotingEdgeELN9__gnu_cxx12_Lock_policyE2EED2Ev.exit.i ], [ %2, %1 ]
  %3 = load ptr, ptr %.09.i, align 8, !tbaa !47
  %4 = getelementptr i8, ptr %.09.i, i64 24
  %.val.i = load ptr, ptr %4, align 8, !tbaa !67
  %.not.i.i.i = icmp eq ptr %.val.i, null
  br i1 %.not.i.i.i, label %_ZNSt12__shared_ptrIN6open3d8geometry12_GLOBAL__N_116BallPivotingEdgeELN9__gnu_cxx12_Lock_policyE2EED2Ev.exit.i, label %5

5:                                                ; preds = %.lr.ph.i
  %6 = getelementptr inbounds nuw i8, ptr %.val.i, i64 8
  %7 = load atomic i64, ptr %6 acquire, align 8
  %8 = icmp eq i64 %7, 4294967297
  %9 = trunc i64 %7 to i32
  br i1 %8, label %10, label %18

10:                                               ; preds = %5
  store i32 0, ptr %6, align 8, !tbaa !49
  %11 = getelementptr inbounds nuw i8, ptr %.val.i, i64 12
  store i32 0, ptr %11, align 4, !tbaa !55
  %12 = load ptr, ptr %.val.i, align 8, !tbaa !4
  %13 = getelementptr inbounds nuw i8, ptr %12, i64 16
  %14 = load ptr, ptr %13, align 8
  tail call void %14(ptr noundef nonnull align 8 dereferenceable(16) %.val.i) #33
  %15 = load ptr, ptr %.val.i, align 8, !tbaa !4
  %16 = getelementptr inbounds nuw i8, ptr %15, i64 24
  %17 = load ptr, ptr %16, align 8
  tail call void %17(ptr noundef nonnull align 8 dereferenceable(16) %.val.i) #33
  br label %_ZNSt12__shared_ptrIN6open3d8geometry12_GLOBAL__N_116BallPivotingEdgeELN9__gnu_cxx12_Lock_policyE2EED2Ev.exit.i

18:                                               ; preds = %5
  %19 = load i8, ptr @__libc_single_threaded, align 1, !tbaa !65
  %.not.i.i.i.i = icmp eq i8 %19, 0
  br i1 %.not.i.i.i.i, label %22, label %20

20:                                               ; preds = %18
  %21 = add nsw i32 %9, -1
  store i32 %21, ptr %6, align 4, !tbaa !98
  br label %_ZN9__gnu_cxx27__exchange_and_add_dispatchEPii.exit.i.i.i.i

22:                                               ; preds = %18
  %23 = atomicrmw volatile add ptr %6, i32 -1 acq_rel, align 4
  br label %_ZN9__gnu_cxx27__exchange_and_add_dispatchEPii.exit.i.i.i.i

_ZN9__gnu_cxx27__exchange_and_add_dispatchEPii.exit.i.i.i.i: ; preds = %22, %20
  %.0.i.i.i.i.i = phi i32 [ %9, %20 ], [ %23, %22 ]
  %24 = icmp eq i32 %.0.i.i.i.i.i, 1
  br i1 %24, label %25, label %_ZNSt12__shared_ptrIN6open3d8geometry12_GLOBAL__N_116BallPivotingEdgeELN9__gnu_cxx12_Lock_policyE2EED2Ev.exit.i, !prof !156

25:                                               ; preds = %_ZN9__gnu_cxx27__exchange_and_add_dispatchEPii.exit.i.i.i.i
  tail call void @_ZNSt16_Sp_counted_baseILN9__gnu_cxx12_Lock_policyE2EE24_M_release_last_use_coldEv(ptr noundef nonnull align 8 dereferenceable(16) %.val.i) #33
  br label %_ZNSt12__shared_ptrIN6open3d8geometry12_GLOBAL__N_116BallPivotingEdgeELN9__gnu_cxx12_Lock_policyE2EED2Ev.exit.i

_ZNSt12__shared_ptrIN6open3d8geometry12_GLOBAL__N_116BallPivotingEdgeELN9__gnu_cxx12_Lock_policyE2EED2Ev.exit.i: ; preds = %25, %_ZN9__gnu_cxx27__exchange_and_add_dispatchEPii.exit.i.i.i.i, %10, %.lr.ph.i
  tail call void @_ZdlPvm(ptr noundef nonnull %.09.i, i64 noundef 32) #36
  %.not.i = icmp eq ptr %3, %0
  br i1 %.not.i, label %_ZNSt7__cxx1110_List_baseISt10shared_ptrIN6open3d8geometry12_GLOBAL__N_116BallPivotingEdgeEESaIS6_EE8_M_clearEv.exit, label %.lr.ph.i, !llvm.loop !235

_ZNSt7__cxx1110_List_baseISt10shared_ptrIN6open3d8geometry12_GLOBAL__N_116BallPivotingEdgeEESaIS6_EE8_M_clearEv.exit: ; preds = %_ZNSt12__shared_ptrIN6open3d8geometry12_GLOBAL__N_116BallPivotingEdgeELN9__gnu_cxx12_Lock_policyE2EED2Ev.exit.i, %1
  ret void
}